target datalayout = "e-m:e-p270:32:32-p271:32:32-p272:64:64-i64:64-i128:128-f80:128-n8:16:32:64-S128"
target triple = "x86_64-pc-linux-gnu"

@.str.20 = private unnamed_addr constant [44 x i8] c"../openssl/test/x509_check_cert_pkey_test.c\00", align 1
@.str.21 = private unnamed_addr constant [28 x i8] c"Error parsing test options\0A\00", align 1
@.str.22 = private unnamed_addr constant [28 x i8] c"file = test_get_argument(0)\00", align 1
@file = internal global ptr null, align 8
@.str.23 = private unnamed_addr constant [27 x i8] c"num = test_get_argument(1)\00", align 1
@.str.24 = private unnamed_addr constant [29 x i8] c"sscanf(num, \22%d\22, &expected)\00", align 1
@.str.25 = private unnamed_addr constant [2 x i8] c"1\00", align 1
@.str.26 = private unnamed_addr constant [3 x i8] c"%d\00", align 1
@expected = internal global i32 0, align 4
@.str.27 = private unnamed_addr constant [28 x i8] c"test_PEM_X509_INFO_read_bio\00", align 1
@.str.28 = private unnamed_addr constant [25 x i8] c"c = test_get_argument(0)\00", align 1
@c = internal global ptr null, align 8
@.str.29 = private unnamed_addr constant [25 x i8] c"k = test_get_argument(1)\00", align 1
@k = internal global ptr null, align 8
@.str.30 = private unnamed_addr constant [25 x i8] c"t = test_get_argument(2)\00", align 1
@t = internal global ptr null, align 8
@.str.31 = private unnamed_addr constant [25 x i8] c"e = test_get_argument(3)\00", align 1
@e = internal global ptr null, align 8
@.str.32 = private unnamed_addr constant [26 x i8] c"test_x509_check_cert_pkey\00", align 1

; Function Attrs: nounwind uwtable
define dso_local i32 @setup_tests() #0 {
  %1 = alloca i32, align 4
  %2 = alloca ptr, align 8
  %3 = alloca i32, align 4
  %4 = call i32 @test_skip_common_options()
  %5 = icmp ne i32 %4, 0
  br i1 %5, label %7, label %6

6:                                                ; preds = %0
  call void (ptr, i32, ptr, ...) @test_error(ptr noundef @.str.20, i32 noundef 156, ptr noundef @.str.21)
  store i32 0, ptr %1, align 4
  br label %45

7:                                                ; preds = %0
  %8 = call i64 @test_get_argument_count()
  %9 = icmp eq i64 %8, 2
  br i1 %9, label %10, label %27

10:                                               ; preds = %7
  call void @llvm.lifetime.start.p0(i64 8, ptr %2) #6
  %11 = call ptr @test_get_argument(i64 noundef 0)
  store ptr %11, ptr @file, align 8, !tbaa !4
  %12 = call i32 @test_ptr(ptr noundef @.str.20, i32 noundef 163, ptr noundef @.str.22, ptr noundef %11)
  %13 = icmp ne i32 %12, 0
  br i1 %13, label %14, label %18

14:                                               ; preds = %10
  %15 = call ptr @test_get_argument(i64 noundef 1)
  store ptr %15, ptr %2, align 8, !tbaa !4
  %16 = call i32 @test_ptr(ptr noundef @.str.20, i32 noundef 164, ptr noundef @.str.23, ptr noundef %15)
  %17 = icmp ne i32 %16, 0
  br i1 %17, label %19, label %18

18:                                               ; preds = %14, %10
  store i32 0, ptr %1, align 4
  store i32 1, ptr %3, align 4
  br label %26

19:                                               ; preds = %14
  %20 = load ptr, ptr %2, align 8, !tbaa !4
  %21 = call i32 (ptr, ptr, ...) @__isoc99_sscanf(ptr noundef %20, ptr noundef @.str.26, ptr noundef @expected) #6
  %22 = call i32 @test_int_eq(ptr noundef @.str.20, i32 noundef 166, ptr noundef @.str.24, ptr noundef @.str.25, i32 noundef %21, i32 noundef 1)
  %23 = icmp ne i32 %22, 0
  br i1 %23, label %25, label %24

24:                                               ; preds = %19
  store i32 0, ptr %1, align 4
  store i32 1, ptr %3, align 4
  br label %26

25:                                               ; preds = %19
  call void @add_test(ptr noundef @.str.27, ptr noundef @test_PEM_X509_INFO_read_bio)
  store i32 1, ptr %1, align 4
  store i32 1, ptr %3, align 4
  br label %26

26:                                               ; preds = %25, %24, %18
  call void @llvm.lifetime.end.p0(i64 8, ptr %2) #6
  br label %45

27:                                               ; preds = %7
  %28 = call ptr @test_get_argument(i64 noundef 0)
  store ptr %28, ptr @c, align 8, !tbaa !4
  %29 = call i32 @test_ptr(ptr noundef @.str.20, i32 noundef 172, ptr noundef @.str.28, ptr noundef %28)
  %30 = icmp ne i32 %29, 0
  br i1 %30, label %31, label %43

31:                                               ; preds = %27
  %32 = call ptr @test_get_argument(i64 noundef 1)
  store ptr %32, ptr @k, align 8, !tbaa !4
  %33 = call i32 @test_ptr(ptr noundef @.str.20, i32 noundef 173, ptr noundef @.str.29, ptr noundef %32)
  %34 = icmp ne i32 %33, 0
  br i1 %34, label %35, label %43

35:                                               ; preds = %31
  %36 = call ptr @test_get_argument(i64 noundef 2)
  store ptr %36, ptr @t, align 8, !tbaa !4
  %37 = call i32 @test_ptr(ptr noundef @.str.20, i32 noundef 174, ptr noundef @.str.30, ptr noundef %36)
  %38 = icmp ne i32 %37, 0
  br i1 %38, label %39, label %43

39:                                               ; preds = %35
  %40 = call ptr @test_get_argument(i64 noundef 3)
  store ptr %40, ptr @e, align 8, !tbaa !4
  %41 = call i32 @test_ptr(ptr noundef @.str.20, i32 noundef 175, ptr noundef @.str.31, ptr noundef %40)
  %42 = icmp ne i32 %41, 0
  br i1 %42, label %44, label %43

43:                                               ; preds = %39, %35, %31, %27
  store i32 0, ptr %1, align 4
  br label %45

44:                                               ; preds = %39
  call void @add_test(ptr noundef @.str.32, ptr noundef @test_x509_check_cert_pkey)
  store i32 1, ptr %1, align 4
  br label %45

45:                                               ; preds = %44, %43, %26, %6
  %46 = load i32, ptr %1, align 4
  ret i32 %46
}