; Function Attrs: nounwind uwtable
define dso_local range(i32 0, 2) i32 @setup_tests() local_unnamed_addr #1 {
  %1 = tail call i32 @test_skip_common_options() #5
  %.not = icmp eq i32 %1, 0
  br i1 %.not, label %2, label %3

2:                                                ; preds = %0
  tail call void (ptr, i32, ptr, ...) @test_error(ptr noundef nonnull @.str.20, i32 noundef 156, ptr noundef nonnull @.str.21) #5
  br label %28

3:                                                ; preds = %0
  %4 = tail call i64 @test_get_argument_count() #5
  %5 = icmp eq i64 %4, 2
  %6 = tail call ptr @test_get_argument(i64 noundef 0) #5
  br i1 %5, label %7, label %16

7:                                                ; preds = %3
  store ptr %6, ptr @file, align 8, !tbaa !4
  %8 = tail call i32 @test_ptr(ptr noundef nonnull @.str.20, i32 noundef 163, ptr noundef nonnull @.str.22, ptr noundef %6) #5
  %.not5 = icmp eq i32 %8, 0
  br i1 %.not5, label %28, label %9

9:                                                ; preds = %7
  %10 = tail call ptr @test_get_argument(i64 noundef 1) #5
  %11 = tail call i32 @test_ptr(ptr noundef nonnull @.str.20, i32 noundef 164, ptr noundef nonnull @.str.23, ptr noundef %10) #5
  %.not6 = icmp eq i32 %11, 0
  br i1 %.not6, label %28, label %12

12:                                               ; preds = %9
  %13 = tail call i32 (ptr, ptr, ...) @__isoc99_sscanf(ptr noundef %10, ptr noundef nonnull @.str.26, ptr noundef nonnull @expected) #5
  %14 = tail call i32 @test_int_eq(ptr noundef nonnull @.str.20, i32 noundef 166, ptr noundef nonnull @.str.24, ptr noundef nonnull @.str.25, i32 noundef %13, i32 noundef 1) #5
  %.not7 = icmp eq i32 %14, 0
  br i1 %.not7, label %28, label %15

15:                                               ; preds = %12
  tail call void @add_test(ptr noundef nonnull @.str.27, ptr noundef nonnull @test_PEM_X509_INFO_read_bio) #5
  br label %28

16:                                               ; preds = %3
  store ptr %6, ptr @c, align 8, !tbaa !4
  %17 = tail call i32 @test_ptr(ptr noundef nonnull @.str.20, i32 noundef 172, ptr noundef nonnull @.str.28, ptr noundef %6) #5
  %.not1 = icmp eq i32 %17, 0
  br i1 %.not1, label %28, label %18

18:                                               ; preds = %16
  %19 = tail call ptr @test_get_argument(i64 noundef 1) #5
  store ptr %19, ptr @k, align 8, !tbaa !4
  %20 = tail call i32 @test_ptr(ptr noundef nonnull @.str.20, i32 noundef 173, ptr noundef nonnull @.str.29, ptr noundef %19) #5
  %.not2 = icmp eq i32 %20, 0
  br i1 %.not2, label %28, label %21

21:                                               ; preds = %18
  %22 = tail call ptr @test_get_argument(i64 noundef 2) #5
  store ptr %22, ptr @t, align 8, !tbaa !4
  %23 = tail call i32 @test_ptr(ptr noundef nonnull @.str.20, i32 noundef 174, ptr noundef nonnull @.str.30, ptr noundef %22) #5
  %.not3 = icmp eq i32 %23, 0
  br i1 %.not3, label %28, label %24

24:                                               ; preds = %21
  %25 = tail call ptr @test_get_argument(i64 noundef 3) #5
  store ptr %25, ptr @e, align 8, !tbaa !4
  %26 = tail call i32 @test_ptr(ptr noundef nonnull @.str.20, i32 noundef 175, ptr noundef nonnull @.str.31, ptr noundef %25) #5
  %.not4 = icmp eq i32 %26, 0
  br i1 %.not4, label %28, label %27

27:                                               ; preds = %24
  tail call void @add_test(ptr noundef nonnull @.str.32, ptr noundef nonnull @test_x509_check_cert_pkey) #5
  br label %28

28:                                               ; preds = %16, %18, %21, %24, %15, %9, %7, %12, %27, %2
  %.0 = phi i32 [ 1, %27 ], [ 0, %2 ], [ 1, %15 ], [ 0, %9 ], [ 0, %7 ], [ 0, %12 ], [ 0, %24 ], [ 0, %21 ], [ 0, %18 ], [ 0, %16 ]
  ret i32 %.0
}